; Function Attrs: mustprogress uwtable
define hidden noalias noundef ptr @_Z23mk_ackr_model_converterR11ast_managerRK3refI9ackr_infoE(ptr noundef nonnull align 8 dereferenceable(976) %0, ptr noundef nonnull readonly align 8 captures(none) dereferenceable(8) %1) local_unnamed_addr #3 personality ptr @__gxx_personality_v0 {
  %3 = tail call noalias noundef ptr @_ZN6memory8allocateEm(i64 noundef 64)
  %4 = getelementptr inbounds nuw i8, ptr %3, i64 8
  store i32 0, ptr %4, align 8, !tbaa !149
  %5 = getelementptr inbounds nuw i8, ptr %3, i64 16
  store ptr null, ptr %5, align 8, !tbaa !150
  %6 = getelementptr inbounds nuw i8, ptr %3, i64 24
  store i8 1, ptr %6, align 8, !tbaa !151
  store ptr getelementptr inbounds nuw inrange(-16, 88) (i8, ptr @_ZTV20ackr_model_converter, i64 16), ptr %3, align 8, !tbaa !152
  %7 = getelementptr inbounds nuw i8, ptr %3, i64 32
  store ptr %0, ptr %7, align 8, !tbaa !110
  %8 = getelementptr inbounds nuw i8, ptr %3, i64 40
  %9 = load ptr, ptr %1, align 8, !tbaa !46
  store ptr %9, ptr %8, align 8, !tbaa !46
  %.not.i.i.i = icmp eq ptr %9, null
  br i1 %.not.i.i.i, label %_ZN20ackr_model_converterC2ER11ast_managerRK3refI9ackr_infoE.exit, label %10

10:                                               ; preds = %2
  %11 = getelementptr inbounds nuw i8, ptr %9, i64 128
  %12 = load i32, ptr %11, align 8, !tbaa !154
  %13 = add i32 %12, 1
  store i32 %13, ptr %11, align 8, !tbaa !154
  br label %_ZN20ackr_model_converterC2ER11ast_managerRK3refI9ackr_infoE.exit

_ZN20ackr_model_converterC2ER11ast_managerRK3refI9ackr_infoE.exit: ; preds = %2, %10
  %14 = getelementptr inbounds nuw i8, ptr %3, i64 48
  store ptr null, ptr %14, align 8, !tbaa !155
  %15 = getelementptr inbounds nuw i8, ptr %3, i64 56
  store i8 0, ptr %15, align 8, !tbaa !156
  ret ptr %3
}